target datalayout = "e-m:e-p270:32:32-p271:32:32-p272:64:64-i64:64-i128:128-f80:128-n8:16:32:64-S128"
target triple = "x86_64-unknown-linux-gnu"

%"class.icu_75::LocaleBased" = type { ptr, ptr }
%"class.icu_75::BreakIterator" = type <{ %"class.icu_75::UObject", [157 x i8], [157 x i8], [157 x i8], i8 }>
%"class.icu_75::UObject" = type { ptr }
%"class.icu_75::Locale" = type <{ %"class.icu_75::UObject", [12 x i8], [6 x i8], [4 x i8], [2 x i8], i32, [4 x i8], ptr, [157 x i8], [3 x i8], ptr, i8, [7 x i8] }>

; Function Attrs: mustprogress nounwind uwtable
define linkonce_odr void @_ZN6icu_7511LocaleBasedC2EPKcS2_(ptr noundef nonnull align 8 dereferenceable(16) %this, ptr noundef %validAlias, ptr noundef %actualAlias) unnamed_addr #0 comdat align 2 {
entry:
  %this.addr = alloca ptr, align 8
  %validAlias.addr = alloca ptr, align 8
  %actualAlias.addr = alloca ptr, align 8
  store ptr %this, ptr %this.addr, align 8
  store ptr %validAlias, ptr %validAlias.addr, align 8
  store ptr %actualAlias, ptr %actualAlias.addr, align 8
  %this1 = load ptr, ptr %this.addr, align 8
  %valid = getelementptr inbounds %"class.icu_75::LocaleBased", ptr %this1, i32 0, i32 0
  %0 = load ptr, ptr %validAlias.addr, align 8
  store ptr %0, ptr %valid, align 8
  %actual = getelementptr inbounds %"class.icu_75::LocaleBased", ptr %this1, i32 0, i32 1
  %1 = load ptr, ptr %actualAlias.addr, align 8
  store ptr %1, ptr %actual, align 8
  ret void
}

; Function Attrs: mustprogress uwtable
define void @_ZNK6icu_7513BreakIterator9getLocaleE18ULocDataLocaleTypeR10UErrorCode(ptr noalias sret(%"class.icu_75::Locale") align 8 %agg.result, ptr noundef nonnull align 8 dereferenceable(479) %this, i32 noundef %type, ptr noundef nonnull align 4 dereferenceable(4) %status) #1 align 2 {
entry:
  %result.ptr = alloca ptr, align 8
  %this.addr = alloca ptr, align 8
  %type.addr = alloca i32, align 4
  %status.addr = alloca ptr, align 8
  %locBased = alloca %"class.icu_75::LocaleBased", align 8
  store ptr %agg.result, ptr %result.ptr, align 8
  store ptr %this, ptr %this.addr, align 8
  store i32 %type, ptr %type.addr, align 4
  store ptr %status, ptr %status.addr, align 8
  %this1 = load ptr, ptr %this.addr, align 8
  %0 = load i32, ptr %type.addr, align 4
  %cmp = icmp eq i32 %0, 2
  br i1 %cmp, label %if.then, label %if.end

if.then:                                          ; preds = %entry
  %requestLocale = getelementptr inbounds %"class.icu_75::BreakIterator", ptr %this1, i32 0, i32 3
  %arraydecay = getelementptr inbounds [157 x i8], ptr %requestLocale, i64 0, i64 0
  call void @_ZN6icu_756LocaleC1EPKcS2_S2_S2_(ptr noundef nonnull align 8 dereferenceable(217) %agg.result, ptr noundef %arraydecay, ptr noundef null, ptr noundef null, ptr noundef null)
  br label %return

if.end:                                           ; preds = %entry
  %validLocale = getelementptr inbounds %"class.icu_75::BreakIterator", ptr %this1, i32 0, i32 2
  %arraydecay2 = getelementptr inbounds [157 x i8], ptr %validLocale, i64 0, i64 0
  %actualLocale = getelementptr inbounds %"class.icu_75::BreakIterator", ptr %this1, i32 0, i32 1
  %arraydecay3 = getelementptr inbounds [157 x i8], ptr %actualLocale, i64 0, i64 0
  call void @_ZN6icu_7511LocaleBasedC2EPKcS2_(ptr noundef nonnull align 8 dereferenceable(16) %locBased, ptr noundef %arraydecay2, ptr noundef %arraydecay3)
  %1 = load i32, ptr %type.addr, align 4
  %2 = load ptr, ptr %status.addr, align 8
  call void @_ZNK6icu_7511LocaleBased9getLocaleE18ULocDataLocaleTypeR10UErrorCode(ptr sret(%"class.icu_75::Locale") align 8 %agg.result, ptr noundef nonnull align 8 dereferenceable(16) %locBased, i32 noundef %1, ptr noundef nonnull align 4 dereferenceable(4) %2)
  br label %return

return:                                           ; preds = %if.end, %if.then
  ret void
}