; Function Attrs: mustprogress uwtable
define void @_ZNK6icu_7513BreakIterator9getLocaleE18ULocDataLocaleTypeR10UErrorCode(ptr noalias sret(%"class.icu_75::Locale") align 8 %agg.result, ptr noundef nonnull align 8 dereferenceable(479) %this, i32 noundef %type, ptr noundef nonnull align 4 dereferenceable(4) %status) local_unnamed_addr #1 align 2 {
entry:
  %locBased = alloca %"class.icu_75::LocaleBased", align 8
  %cmp = icmp eq i32 %type, 2
  br i1 %cmp, label %if.then, label %if.end

if.then:                                          ; preds = %entry
  %requestLocale = getelementptr inbounds i8, ptr %this, i64 322
  tail call void @_ZN6icu_756LocaleC1EPKcS2_S2_S2_(ptr noundef nonnull align 8 dereferenceable(217) %agg.result, ptr noundef nonnull %requestLocale, ptr noundef null, ptr noundef null, ptr noundef null)
  br label %return

if.end:                                           ; preds = %entry
  %validLocale = getelementptr inbounds i8, ptr %this, i64 165
  %actualLocale = getelementptr inbounds i8, ptr %this, i64 8
  store ptr %validLocale, ptr %locBased, align 8
  %actual.i = getelementptr inbounds i8, ptr %locBased, i64 8
  store ptr %actualLocale, ptr %actual.i, align 8
  call void @_ZNK6icu_7511LocaleBased9getLocaleE18ULocDataLocaleTypeR10UErrorCode(ptr sret(%"class.icu_75::Locale") align 8 %agg.result, ptr noundef nonnull align 8 dereferenceable(16) %locBased, i32 noundef %type, ptr noundef nonnull align 4 dereferenceable(4) %status)
  br label %return

return:                                           ; preds = %if.end, %if.then
  ret void
}